target datalayout = "e-m:e-p270:32:32-p271:32:32-p272:64:64-i64:64-i128:128-f80:128-n8:16:32:64-S128"
target triple = "x86_64-pc-linux-gnu"

%struct.SCRYPT_PARAMS_st = type { ptr, ptr, ptr, ptr, ptr }
%struct.asn1_string_st = type { i32, i32, ptr, i64 }

@SCRYPT_PARAMS_it.local_it = internal constant { i8, [7 x i8], i64, ptr, i64, ptr, i64, ptr } { i8 1, [7 x i8] zeroinitializer, i64 16, ptr @SCRYPT_PARAMS_seq_tt, i64 5, ptr null, i64 40, ptr @.str }, align 8
@.str.1 = private unnamed_addr constant [35 x i8] c"../openssl/crypto/asn1/p5_scrypt.c\00", align 1
@__func__.PKCS5_v2_scrypt_keyivgen_ex = private unnamed_addr constant [28 x i8] c"PKCS5_v2_scrypt_keyivgen_ex\00", align 1

; Function Attrs: nounwind uwtable
define void @SCRYPT_PARAMS_free(ptr noundef %0) #0 {
  %2 = alloca ptr, align 8
  store ptr %0, ptr %2, align 8, !tbaa !12
  %3 = load ptr, ptr %2, align 8, !tbaa !12
  %4 = call ptr @SCRYPT_PARAMS_it()
  call void @ASN1_item_free(ptr noundef %3, ptr noundef %4)
  ret void
}

; Function Attrs: nounwind uwtable
define ptr @SCRYPT_PARAMS_it() #0 {
  ret ptr @SCRYPT_PARAMS_it.local_it
}

; Function Attrs: nounwind uwtable
define i32 @PKCS5_v2_scrypt_keyivgen_ex(ptr noundef %0, ptr noundef %1, i32 noundef %2, ptr noundef %3, ptr noundef %4, ptr noundef %5, i32 noundef %6, ptr noundef %7, ptr noundef %8) #0 {
  %10 = alloca i32, align 4
  %11 = alloca ptr, align 8
  %12 = alloca ptr, align 8
  %13 = alloca i32, align 4
  %14 = alloca ptr, align 8
  %15 = alloca ptr, align 8
  %16 = alloca ptr, align 8
  %17 = alloca i32, align 4
  %18 = alloca ptr, align 8
  %19 = alloca ptr, align 8
  %20 = alloca ptr, align 8
  %21 = alloca [64 x i8], align 16
  %22 = alloca i64, align 8
  %23 = alloca i64, align 8
  %24 = alloca i64, align 8
  %25 = alloca i64, align 8
  %26 = alloca i64, align 8
  %27 = alloca i32, align 4
  %28 = alloca i32, align 4
  %29 = alloca ptr, align 8
  %30 = alloca i64, align 8
  %31 = alloca i32, align 4
  store ptr %0, ptr %11, align 8, !tbaa !22
  store ptr %1, ptr %12, align 8, !tbaa !16
  store i32 %2, ptr %13, align 4, !tbaa !18
  store ptr %3, ptr %14, align 8, !tbaa !43
  store ptr %4, ptr %15, align 8, !tbaa !14
  store ptr %5, ptr %16, align 8, !tbaa !44
  store i32 %6, ptr %17, align 4, !tbaa !18
  store ptr %7, ptr %18, align 8, !tbaa !46
  store ptr %8, ptr %19, align 8, !tbaa !16
  call void @llvm.lifetime.start.p0(i64 8, ptr %20) #4
  call void @llvm.lifetime.start.p0(i64 64, ptr %21) #4
  call void @llvm.lifetime.start.p0(i64 8, ptr %22) #4
  call void @llvm.lifetime.start.p0(i64 8, ptr %23) #4
  call void @llvm.lifetime.start.p0(i64 8, ptr %24) #4
  call void @llvm.lifetime.start.p0(i64 8, ptr %25) #4
  call void @llvm.lifetime.start.p0(i64 8, ptr %26) #4
  store i64 0, ptr %26, align 8, !tbaa !10
  call void @llvm.lifetime.start.p0(i64 4, ptr %27) #4
  call void @llvm.lifetime.start.p0(i64 4, ptr %28) #4
  store i32 0, ptr %28, align 4, !tbaa !18
  call void @llvm.lifetime.start.p0(i64 8, ptr %29) #4
  store ptr null, ptr %29, align 8, !tbaa !12
  %32 = load ptr, ptr %11, align 8, !tbaa !22
  %33 = call ptr @EVP_CIPHER_CTX_get0_cipher(ptr noundef %32)
  %34 = icmp eq ptr %33, null
  br i1 %34, label %35, label %36

35:                                               ; preds = %9
  call void @ERR_new()
  call void @ERR_set_debug(ptr noundef @.str.1, i32 noundef 249, ptr noundef @__func__.PKCS5_v2_scrypt_keyivgen_ex)
  call void (i32, i32, ptr, ...) @ERR_set_error(i32 noundef 6, i32 noundef 131, ptr noundef null)
  br label %130

36:                                               ; preds = %9
  %37 = call ptr @SCRYPT_PARAMS_it()
  %38 = load ptr, ptr %14, align 8, !tbaa !43
  %39 = call ptr @ASN1_TYPE_unpack_sequence(ptr noundef %37, ptr noundef %38)
  store ptr %39, ptr %29, align 8, !tbaa !12
  %40 = load ptr, ptr %29, align 8, !tbaa !12
  %41 = icmp eq ptr %40, null
  br i1 %41, label %42, label %43

42:                                               ; preds = %36
  call void @ERR_new()
  call void @ERR_set_debug(ptr noundef @.str.1, i32 noundef 258, ptr noundef @__func__.PKCS5_v2_scrypt_keyivgen_ex)
  call void (i32, i32, ptr, ...) @ERR_set_error(i32 noundef 6, i32 noundef 114, ptr noundef null)
  br label %130

43:                                               ; preds = %36
  %44 = load ptr, ptr %11, align 8, !tbaa !22
  %45 = call i32 @EVP_CIPHER_CTX_get_key_length(ptr noundef %44)
  store i32 %45, ptr %27, align 4, !tbaa !18
  %46 = load i32, ptr %27, align 4, !tbaa !18
  %47 = icmp slt i32 %46, 0
  br i1 %47, label %48, label %49

48:                                               ; preds = %43
  call void @ERR_new()
  call void @ERR_set_debug(ptr noundef @.str.1, i32 noundef 264, ptr noundef @__func__.PKCS5_v2_scrypt_keyivgen_ex)
  call void (i32, i32, ptr, ...) @ERR_set_error(i32 noundef 6, i32 noundef 130, ptr noundef null)
  br label %130

49:                                               ; preds = %43
  %50 = load i32, ptr %27, align 4, !tbaa !18
  %51 = sext i32 %50 to i64
  store i64 %51, ptr %26, align 8, !tbaa !10
  %52 = load ptr, ptr %29, align 8, !tbaa !12
  %53 = getelementptr inbounds nuw %struct.SCRYPT_PARAMS_st, ptr %52, i32 0, i32 4
  %54 = load ptr, ptr %53, align 8, !tbaa !42
  %55 = icmp ne ptr %54, null
  br i1 %55, label %56, label %71

56:                                               ; preds = %49
  call void @llvm.lifetime.start.p0(i64 8, ptr %30) #4
  %57 = load ptr, ptr %29, align 8, !tbaa !12
  %58 = getelementptr inbounds nuw %struct.SCRYPT_PARAMS_st, ptr %57, i32 0, i32 4
  %59 = load ptr, ptr %58, align 8, !tbaa !42
  %60 = call i32 @ASN1_INTEGER_get_uint64(ptr noundef %30, ptr noundef %59)
  %61 = icmp eq i32 %60, 0
  br i1 %61, label %66, label %62

62:                                               ; preds = %56
  %63 = load i64, ptr %30, align 8, !tbaa !10
  %64 = load i64, ptr %26, align 8, !tbaa !10
  %65 = icmp ne i64 %63, %64
  br i1 %65, label %66, label %67

66:                                               ; preds = %62, %56
  call void @ERR_new()
  call void @ERR_set_debug(ptr noundef @.str.1, i32 noundef 275, ptr noundef @__func__.PKCS5_v2_scrypt_keyivgen_ex)
  call void (i32, i32, ptr, ...) @ERR_set_error(i32 noundef 6, i32 noundef 123, ptr noundef null)
  store i32 2, ptr %31, align 4
  br label %68

67:                                               ; preds = %62
  store i32 0, ptr %31, align 4
  br label %68

68:                                               ; preds = %66, %67
  call void @llvm.lifetime.end.p0(i64 8, ptr %30) #4
  %69 = load i32, ptr %31, align 4
  switch i32 %69, label %139 [
    i32 0, label %70
    i32 2, label %130
  ]

70:                                               ; preds = %68
  br label %71

71:                                               ; preds = %70, %49
  %72 = load ptr, ptr %29, align 8, !tbaa !12
  %73 = getelementptr inbounds nuw %struct.SCRYPT_PARAMS_st, ptr %72, i32 0, i32 1
  %74 = load ptr, ptr %73, align 8, !tbaa !39
  %75 = call i32 @ASN1_INTEGER_get_uint64(ptr noundef %24, ptr noundef %74)
  %76 = icmp eq i32 %75, 0
  br i1 %76, label %97, label %77

77:                                               ; preds = %71
  %78 = load ptr, ptr %29, align 8, !tbaa !12
  %79 = getelementptr inbounds nuw %struct.SCRYPT_PARAMS_st, ptr %78, i32 0, i32 2
  %80 = load ptr, ptr %79, align 8, !tbaa !40
  %81 = call i32 @ASN1_INTEGER_get_uint64(ptr noundef %23, ptr noundef %80)
  %82 = icmp eq i32 %81, 0
  br i1 %82, label %97, label %83

83:                                               ; preds = %77
  %84 = load ptr, ptr %29, align 8, !tbaa !12
  %85 = getelementptr inbounds nuw %struct.SCRYPT_PARAMS_st, ptr %84, i32 0, i32 3
  %86 = load ptr, ptr %85, align 8, !tbaa !41
  %87 = call i32 @ASN1_INTEGER_get_uint64(ptr noundef %22, ptr noundef %86)
  %88 = icmp eq i32 %87, 0
  br i1 %88, label %97, label %89

89:                                               ; preds = %83
  %90 = load i64, ptr %24, align 8, !tbaa !10
  %91 = load i64, ptr %23, align 8, !tbaa !10
  %92 = load i64, ptr %22, align 8, !tbaa !10
  %93 = load ptr, ptr %18, align 8, !tbaa !46
  %94 = load ptr, ptr %19, align 8, !tbaa !16
  %95 = call i32 @EVP_PBE_scrypt_ex(ptr noundef null, i64 noundef 0, ptr noundef null, i64 noundef 0, i64 noundef %90, i64 noundef %91, i64 noundef %92, i64 noundef 0, ptr noundef null, i64 noundef 0, ptr noundef %93, ptr noundef %94)
  %96 = icmp eq i32 %95, 0
  br i1 %96, label %97, label %98

97:                                               ; preds = %89, %83, %77, %71
  call void @ERR_new()
  call void @ERR_set_debug(ptr noundef @.str.1, i32 noundef 285, ptr noundef @__func__.PKCS5_v2_scrypt_keyivgen_ex)
  call void (i32, i32, ptr, ...) @ERR_set_error(i32 noundef 6, i32 noundef 171, ptr noundef null)
  br label %130

98:                                               ; preds = %89
  %99 = load ptr, ptr %29, align 8, !tbaa !12
  %100 = getelementptr inbounds nuw %struct.SCRYPT_PARAMS_st, ptr %99, i32 0, i32 0
  %101 = load ptr, ptr %100, align 8, !tbaa !34
  %102 = getelementptr inbounds nuw %struct.asn1_string_st, ptr %101, i32 0, i32 2
  %103 = load ptr, ptr %102, align 8, !tbaa !37
  store ptr %103, ptr %20, align 8, !tbaa !16
  %104 = load ptr, ptr %29, align 8, !tbaa !12
  %105 = getelementptr inbounds nuw %struct.SCRYPT_PARAMS_st, ptr %104, i32 0, i32 0
  %106 = load ptr, ptr %105, align 8, !tbaa !34
  %107 = getelementptr inbounds nuw %struct.asn1_string_st, ptr %106, i32 0, i32 0
  %108 = load i32, ptr %107, align 8, !tbaa !48
  %109 = sext i32 %108 to i64
  store i64 %109, ptr %25, align 8, !tbaa !10
  %110 = load ptr, ptr %12, align 8, !tbaa !16
  %111 = load i32, ptr %13, align 4, !tbaa !18
  %112 = sext i32 %111 to i64
  %113 = load ptr, ptr %20, align 8, !tbaa !16
  %114 = load i64, ptr %25, align 8, !tbaa !10
  %115 = load i64, ptr %24, align 8, !tbaa !10
  %116 = load i64, ptr %23, align 8, !tbaa !10
  %117 = load i64, ptr %22, align 8, !tbaa !10
  %118 = getelementptr inbounds [64 x i8], ptr %21, i64 0, i64 0
  %119 = load i64, ptr %26, align 8, !tbaa !10
  %120 = load ptr, ptr %18, align 8, !tbaa !46
  %121 = load ptr, ptr %19, align 8, !tbaa !16
  %122 = call i32 @EVP_PBE_scrypt_ex(ptr noundef %110, i64 noundef %112, ptr noundef %113, i64 noundef %114, i64 noundef %115, i64 noundef %116, i64 noundef %117, i64 noundef 0, ptr noundef %118, i64 noundef %119, ptr noundef %120, ptr noundef %121)
  %123 = icmp eq i32 %122, 0
  br i1 %123, label %124, label %125

124:                                              ; preds = %98
  br label %130

125:                                              ; preds = %98
  %126 = load ptr, ptr %11, align 8, !tbaa !22
  %127 = getelementptr inbounds [64 x i8], ptr %21, i64 0, i64 0
  %128 = load i32, ptr %17, align 4, !tbaa !18
  %129 = call i32 @EVP_CipherInit_ex(ptr noundef %126, ptr noundef null, ptr noundef null, ptr noundef %127, ptr noundef null, i32 noundef %128)
  store i32 %129, ptr %28, align 4, !tbaa !18
  br label %130

130:                                              ; preds = %125, %68, %124, %97, %48, %42, %35
  %131 = load i64, ptr %26, align 8, !tbaa !10
  %132 = icmp ne i64 %131, 0
  br i1 %132, label %133, label %136

133:                                              ; preds = %130
  %134 = getelementptr inbounds [64 x i8], ptr %21, i64 0, i64 0
  %135 = load i64, ptr %26, align 8, !tbaa !10
  call void @OPENSSL_cleanse(ptr noundef %134, i64 noundef %135)
  br label %136

136:                                              ; preds = %133, %130
  %137 = load ptr, ptr %29, align 8, !tbaa !12
  call void @SCRYPT_PARAMS_free(ptr noundef %137)
  %138 = load i32, ptr %28, align 4, !tbaa !18
  store i32 %138, ptr %10, align 4
  store i32 1, ptr %31, align 4
  br label %139

139:                                              ; preds = %136, %68
  call void @llvm.lifetime.end.p0(i64 8, ptr %29) #4
  call void @llvm.lifetime.end.p0(i64 4, ptr %28) #4
  call void @llvm.lifetime.end.p0(i64 4, ptr %27) #4
  call void @llvm.lifetime.end.p0(i64 8, ptr %26) #4
  call void @llvm.lifetime.end.p0(i64 8, ptr %25) #4
  call void @llvm.lifetime.end.p0(i64 8, ptr %24) #4
  call void @llvm.lifetime.end.p0(i64 8, ptr %23) #4
  call void @llvm.lifetime.end.p0(i64 8, ptr %22) #4
  call void @llvm.lifetime.end.p0(i64 64, ptr %21) #4
  call void @llvm.lifetime.end.p0(i64 8, ptr %20) #4
  %140 = load i32, ptr %10, align 4
  ret i32 %140
}