; Function Attrs: nounwind uwtable
define i32 @PKCS5_v2_scrypt_keyivgen_ex(ptr noundef %0, ptr noundef %1, i32 noundef %2, ptr noundef %3, ptr readnone captures(none) %4, ptr readnone captures(none) %5, i32 noundef %6, ptr noundef %7, ptr noundef %8) local_unnamed_addr #1 {
  %10 = alloca [64 x i8], align 16
  %11 = alloca i64, align 8
  %12 = alloca i64, align 8
  %13 = alloca i64, align 8
  %14 = alloca i64, align 8
  call void @llvm.lifetime.start.p0(i64 64, ptr nonnull %10) #5
  call void @llvm.lifetime.start.p0(i64 8, ptr nonnull %11) #5
  call void @llvm.lifetime.start.p0(i64 8, ptr nonnull %12) #5
  call void @llvm.lifetime.start.p0(i64 8, ptr nonnull %13) #5
  %15 = tail call ptr @EVP_CIPHER_CTX_get0_cipher(ptr noundef %0) #5
  %16 = icmp eq ptr %15, null
  br i1 %16, label %17, label %18

17:                                               ; preds = %9
  tail call void @ERR_new() #5
  tail call void @ERR_set_debug(ptr noundef nonnull @.str.1, i32 noundef 249, ptr noundef nonnull @__func__.PKCS5_v2_scrypt_keyivgen_ex) #5
  tail call void (i32, i32, ptr, ...) @ERR_set_error(i32 noundef 6, i32 noundef 131, ptr noundef null) #5
  br label %.thread41

18:                                               ; preds = %9
  %19 = tail call ptr @ASN1_TYPE_unpack_sequence(ptr noundef nonnull @SCRYPT_PARAMS_it.local_it, ptr noundef %3) #5
  %20 = icmp eq ptr %19, null
  br i1 %20, label %21, label %22

21:                                               ; preds = %18
  tail call void @ERR_new() #5
  tail call void @ERR_set_debug(ptr noundef nonnull @.str.1, i32 noundef 258, ptr noundef nonnull @__func__.PKCS5_v2_scrypt_keyivgen_ex) #5
  tail call void (i32, i32, ptr, ...) @ERR_set_error(i32 noundef 6, i32 noundef 114, ptr noundef null) #5
  br label %.thread41

22:                                               ; preds = %18
  %23 = tail call i32 @EVP_CIPHER_CTX_get_key_length(ptr noundef %0) #5
  %24 = icmp slt i32 %23, 0
  br i1 %24, label %25, label %26

25:                                               ; preds = %22
  tail call void @ERR_new() #5
  tail call void @ERR_set_debug(ptr noundef nonnull @.str.1, i32 noundef 264, ptr noundef nonnull @__func__.PKCS5_v2_scrypt_keyivgen_ex) #5
  tail call void (i32, i32, ptr, ...) @ERR_set_error(i32 noundef 6, i32 noundef 130, ptr noundef null) #5
  br label %.thread41

26:                                               ; preds = %22
  %27 = zext nneg i32 %23 to i64
  %28 = getelementptr inbounds nuw i8, ptr %19, i64 32
  %29 = load ptr, ptr %28, align 8, !tbaa !26
  %.not = icmp eq ptr %29, null
  br i1 %.not, label %35, label %30

30:                                               ; preds = %26
  call void @llvm.lifetime.start.p0(i64 8, ptr nonnull %14) #5
  %31 = call i32 @ASN1_INTEGER_get_uint64(ptr noundef nonnull %14, ptr noundef nonnull %29) #5
  %32 = icmp ne i32 %31, 0
  %33 = load i64, ptr %14, align 8
  %.not36 = icmp eq i64 %33, %27
  %or.cond = select i1 %32, i1 %.not36, i1 false
  br i1 %or.cond, label %.thread, label %34

.thread:                                          ; preds = %30
  call void @llvm.lifetime.end.p0(i64 8, ptr nonnull %14) #5
  br label %35

34:                                               ; preds = %30
  call void @ERR_new() #5
  call void @ERR_set_debug(ptr noundef nonnull @.str.1, i32 noundef 275, ptr noundef nonnull @__func__.PKCS5_v2_scrypt_keyivgen_ex) #5
  call void (i32, i32, ptr, ...) @ERR_set_error(i32 noundef 6, i32 noundef 123, ptr noundef null) #5
  call void @llvm.lifetime.end.p0(i64 8, ptr nonnull %14) #5
  br label %71

35:                                               ; preds = %.thread, %26
  %36 = getelementptr inbounds nuw i8, ptr %19, i64 8
  %37 = load ptr, ptr %36, align 8, !tbaa !23
  %38 = call i32 @ASN1_INTEGER_get_uint64(ptr noundef nonnull %13, ptr noundef %37) #5
  %39 = icmp eq i32 %38, 0
  br i1 %39, label %56, label %40

40:                                               ; preds = %35
  %41 = getelementptr inbounds nuw i8, ptr %19, i64 16
  %42 = load ptr, ptr %41, align 8, !tbaa !24
  %43 = call i32 @ASN1_INTEGER_get_uint64(ptr noundef nonnull %12, ptr noundef %42) #5
  %44 = icmp eq i32 %43, 0
  br i1 %44, label %56, label %45

45:                                               ; preds = %40
  %46 = getelementptr inbounds nuw i8, ptr %19, i64 24
  %47 = load ptr, ptr %46, align 8, !tbaa !25
  %48 = call i32 @ASN1_INTEGER_get_uint64(ptr noundef nonnull %11, ptr noundef %47) #5
  %49 = icmp eq i32 %48, 0
  br i1 %49, label %56, label %50

50:                                               ; preds = %45
  %51 = load i64, ptr %13, align 8, !tbaa !27
  %52 = load i64, ptr %12, align 8, !tbaa !27
  %53 = load i64, ptr %11, align 8, !tbaa !27
  %54 = call i32 @EVP_PBE_scrypt_ex(ptr noundef null, i64 noundef 0, ptr noundef null, i64 noundef 0, i64 noundef %51, i64 noundef %52, i64 noundef %53, i64 noundef 0, ptr noundef null, i64 noundef 0, ptr noundef %7, ptr noundef %8) #5
  %55 = icmp eq i32 %54, 0
  br i1 %55, label %56, label %57

56:                                               ; preds = %50, %45, %40, %35
  call void @ERR_new() #5
  call void @ERR_set_debug(ptr noundef nonnull @.str.1, i32 noundef 285, ptr noundef nonnull @__func__.PKCS5_v2_scrypt_keyivgen_ex) #5
  call void (i32, i32, ptr, ...) @ERR_set_error(i32 noundef 6, i32 noundef 171, ptr noundef null) #5
  br label %71

57:                                               ; preds = %50
  %58 = load ptr, ptr %19, align 8, !tbaa !15
  %59 = getelementptr inbounds nuw i8, ptr %58, i64 8
  %60 = load ptr, ptr %59, align 8, !tbaa !18
  %61 = load i32, ptr %58, align 8, !tbaa !28
  %62 = sext i32 %61 to i64
  %63 = sext i32 %2 to i64
  %64 = load i64, ptr %13, align 8, !tbaa !27
  %65 = load i64, ptr %12, align 8, !tbaa !27
  %66 = load i64, ptr %11, align 8, !tbaa !27
  %67 = call i32 @EVP_PBE_scrypt_ex(ptr noundef %1, i64 noundef %63, ptr noundef %60, i64 noundef %62, i64 noundef %64, i64 noundef %65, i64 noundef %66, i64 noundef 0, ptr noundef nonnull %10, i64 noundef %27, ptr noundef %7, ptr noundef %8) #5
  %68 = icmp eq i32 %67, 0
  br i1 %68, label %71, label %69

69:                                               ; preds = %57
  %70 = call i32 @EVP_CipherInit_ex(ptr noundef %0, ptr noundef null, ptr noundef null, ptr noundef nonnull %10, ptr noundef null, i32 noundef %6) #5
  br label %71

71:                                               ; preds = %34, %57, %69, %56
  %.031 = phi i32 [ 0, %34 ], [ 0, %56 ], [ 0, %57 ], [ %70, %69 ]
  %.not37 = icmp eq i32 %23, 0
  br i1 %.not37, label %.thread41, label %72

72:                                               ; preds = %71
  call void @OPENSSL_cleanse(ptr noundef nonnull %10, i64 noundef %27) #5
  br label %.thread41

.thread41:                                        ; preds = %25, %21, %17, %72, %71
  %.03047 = phi ptr [ %19, %72 ], [ %19, %71 ], [ %19, %25 ], [ null, %21 ], [ null, %17 ]
  %.03146 = phi i32 [ %.031, %72 ], [ %.031, %71 ], [ 0, %25 ], [ 0, %21 ], [ 0, %17 ]
  call void @ASN1_item_free(ptr noundef %.03047, ptr noundef nonnull @SCRYPT_PARAMS_it.local_it) #5
  call void @llvm.lifetime.end.p0(i64 8, ptr nonnull %13) #5
  call void @llvm.lifetime.end.p0(i64 8, ptr nonnull %12) #5
  call void @llvm.lifetime.end.p0(i64 8, ptr nonnull %11) #5
  call void @llvm.lifetime.end.p0(i64 64, ptr nonnull %10) #5
  ret i32 %.03146
}